target datalayout = "e-m:e-p270:32:32-p271:32:32-p272:64:64-i64:64-i128:128-f80:128-n8:16:32:64-S128"
target triple = "x86_64-unknown-linux-gnu"

%struct.SiFivePwmState = type { %struct.SysBusDevice, %struct.MemoryRegion, [4 x %struct.QEMUTimer], i64, i64, i32, [4 x i32], [4 x ptr] }
%struct.SysBusDevice = type { %struct.DeviceState, i32, [32 x %struct.anon], i32, [32 x i32] }
%struct.DeviceState = type { %struct.Object, ptr, ptr, i8, i8, i64, ptr, i32, i8, ptr, %struct.NamedGPIOListHead, %struct.NamedClockListHead, %struct.BusStateHead, i32, i32, i32, %struct.ResettableState, ptr, %struct.MemReentrancyGuard }
%struct.Object = type { ptr, ptr, ptr, i32, ptr }
%struct.NamedGPIOListHead = type { ptr }
%struct.NamedClockListHead = type { ptr }
%struct.BusStateHead = type { ptr }
%struct.ResettableState = type { i32, i8, i8 }
%struct.MemReentrancyGuard = type { i8 }
%struct.anon = type { i64, ptr }
%struct.MemoryRegion = type { %struct.Object, i8, i8, i8, i8, i8, i8, i8, i8, i8, i8, ptr, ptr, ptr, ptr, ptr, ptr, i32, i128, i64, ptr, i64, i8, i8, i8, i8, i8, ptr, i64, i32, %union.anon, %union.anon.0, %union.anon.1, ptr, i32, ptr, ptr, i8 }
%union.anon = type { %struct.QTailQLink }
%struct.QTailQLink = type { ptr, ptr }
%union.anon.0 = type { %struct.QTailQLink }
%union.anon.1 = type { %struct.QTailQLink }
%struct.QEMUTimer = type { i64, ptr, ptr, ptr, ptr, i32, i32 }

@.str = private unnamed_addr constant [11 x i8] c"sifive-pwm\00", align 1
@.str.2 = private unnamed_addr constant [30 x i8] c"../qemu/hw/timer/sifive_pwm.c\00", align 1
@__func__.sifive_pwm_realize = private unnamed_addr constant [19 x i8] c"sifive_pwm_realize\00", align 1

; Function Attrs: nounwind sspstrong uwtable
define internal void @timer_init(ptr noundef %ts, i32 noundef %type, i32 noundef %scale, ptr noundef %cb, ptr noundef %opaque) #0 {
entry:
  %ts.addr = alloca ptr, align 8
  %type.addr = alloca i32, align 4
  %scale.addr = alloca i32, align 4
  %cb.addr = alloca ptr, align 8
  %opaque.addr = alloca ptr, align 8
  store ptr %ts, ptr %ts.addr, align 8
  store i32 %type, ptr %type.addr, align 4
  store i32 %scale, ptr %scale.addr, align 4
  store ptr %cb, ptr %cb.addr, align 8
  store ptr %opaque, ptr %opaque.addr, align 8
  %0 = load ptr, ptr %ts.addr, align 8
  %1 = load i32, ptr %type.addr, align 4
  %2 = load i32, ptr %scale.addr, align 4
  %3 = load ptr, ptr %cb.addr, align 8
  %4 = load ptr, ptr %opaque.addr, align 8
  call void @timer_init_full(ptr noundef %0, ptr noundef null, i32 noundef %1, i32 noundef %2, i32 noundef 0, ptr noundef %3, ptr noundef %4)
  ret void
}

; Function Attrs: nounwind sspstrong uwtable
define internal void @timer_init_ns(ptr noundef %ts, i32 noundef %type, ptr noundef %cb, ptr noundef %opaque) #0 {
entry:
  %ts.addr = alloca ptr, align 8
  %type.addr = alloca i32, align 4
  %cb.addr = alloca ptr, align 8
  %opaque.addr = alloca ptr, align 8
  store ptr %ts, ptr %ts.addr, align 8
  store i32 %type, ptr %type.addr, align 4
  store ptr %cb, ptr %cb.addr, align 8
  store ptr %opaque, ptr %opaque.addr, align 8
  %0 = load ptr, ptr %ts.addr, align 8
  %1 = load i32, ptr %type.addr, align 4
  %2 = load ptr, ptr %cb.addr, align 8
  %3 = load ptr, ptr %opaque.addr, align 8
  call void @timer_init(ptr noundef %0, i32 noundef %1, i32 noundef 1, ptr noundef %2, ptr noundef %3)
  ret void
}

; Function Attrs: nounwind sspstrong uwtable
define internal void @sifive_pwm_realize(ptr noundef %dev, ptr noundef %errp) #0 {
entry:
  %dev.addr = alloca ptr, align 8
  %errp.addr = alloca ptr, align 8
  %s = alloca ptr, align 8
  store ptr %dev, ptr %dev.addr, align 8
  store ptr %errp, ptr %errp.addr, align 8
  %0 = load ptr, ptr %dev.addr, align 8
  %call = call ptr @object_dynamic_cast_assert(ptr noundef %0, ptr noundef @.str, ptr noundef @.str.2, i32 noundef 430, ptr noundef @__func__.sifive_pwm_realize)
  store ptr %call, ptr %s, align 8
  %1 = load ptr, ptr %s, align 8
  %timer = getelementptr inbounds %struct.SiFivePwmState, ptr %1, i32 0, i32 2
  %arrayidx = getelementptr [4 x %struct.QEMUTimer], ptr %timer, i64 0, i64 0
  %2 = load ptr, ptr %s, align 8
  call void @timer_init_ns(ptr noundef %arrayidx, i32 noundef 1, ptr noundef @sifive_pwm_interrupt_0, ptr noundef %2)
  %3 = load ptr, ptr %s, align 8
  %timer1 = getelementptr inbounds %struct.SiFivePwmState, ptr %3, i32 0, i32 2
  %arrayidx2 = getelementptr [4 x %struct.QEMUTimer], ptr %timer1, i64 0, i64 1
  %4 = load ptr, ptr %s, align 8
  call void @timer_init_ns(ptr noundef %arrayidx2, i32 noundef 1, ptr noundef @sifive_pwm_interrupt_1, ptr noundef %4)
  %5 = load ptr, ptr %s, align 8
  %timer3 = getelementptr inbounds %struct.SiFivePwmState, ptr %5, i32 0, i32 2
  %arrayidx4 = getelementptr [4 x %struct.QEMUTimer], ptr %timer3, i64 0, i64 2
  %6 = load ptr, ptr %s, align 8
  call void @timer_init_ns(ptr noundef %arrayidx4, i32 noundef 1, ptr noundef @sifive_pwm_interrupt_2, ptr noundef %6)
  %7 = load ptr, ptr %s, align 8
  %timer5 = getelementptr inbounds %struct.SiFivePwmState, ptr %7, i32 0, i32 2
  %arrayidx6 = getelementptr [4 x %struct.QEMUTimer], ptr %timer5, i64 0, i64 3
  %8 = load ptr, ptr %s, align 8
  call void @timer_init_ns(ptr noundef %arrayidx6, i32 noundef 1, ptr noundef @sifive_pwm_interrupt_3, ptr noundef %8)
  ret void
}