; Function Attrs: nounwind sspstrong uwtable
define internal void @sifive_pwm_realize(ptr noundef %dev, ptr readnone captures(none) %errp) #0 {
entry:
  %call = tail call ptr @object_dynamic_cast_assert(ptr noundef %dev, ptr noundef nonnull @.str, ptr noundef nonnull @.str.2, i32 noundef 430, ptr noundef nonnull @__func__.sifive_pwm_realize) #6
  %timer = getelementptr inbounds nuw i8, ptr %call, i64 1088
  tail call void @timer_init_full(ptr noundef nonnull %timer, ptr noundef null, i32 noundef 1, i32 noundef 1, i32 noundef 0, ptr noundef nonnull @sifive_pwm_interrupt_0, ptr noundef %call) #6
  %arrayidx2 = getelementptr i8, ptr %call, i64 1136
  tail call void @timer_init_full(ptr noundef %arrayidx2, ptr noundef null, i32 noundef 1, i32 noundef 1, i32 noundef 0, ptr noundef nonnull @sifive_pwm_interrupt_1, ptr noundef %call) #6
  %arrayidx4 = getelementptr i8, ptr %call, i64 1184
  tail call void @timer_init_full(ptr noundef %arrayidx4, ptr noundef null, i32 noundef 1, i32 noundef 1, i32 noundef 0, ptr noundef nonnull @sifive_pwm_interrupt_2, ptr noundef %call) #6
  %arrayidx6 = getelementptr i8, ptr %call, i64 1232
  tail call void @timer_init_full(ptr noundef %arrayidx6, ptr noundef null, i32 noundef 1, i32 noundef 1, i32 noundef 0, ptr noundef nonnull @sifive_pwm_interrupt_3, ptr noundef %call) #6
  ret void
}